; ModuleID = '49/1036.c'
source_filename = "49/1036.c"
target datalayout = "e-m:e-p270:32:32-p271:32:32-p272:64:64-i64:64-f80:128-n8:16:32:64-S128"
target triple = "x86_64-pc-linux-gnu"

@.str = private unnamed_addr constant [4 x i8] c"%s\0A\00", align 1

; Function Attrs: noinline nounwind uwtable
define dso_local i32 @judge(i8* %0) #0 {
  %2 = alloca i32, align 4
  %3 = alloca i8*, align 8
  %4 = alloca i32, align 4
  %5 = alloca i8*, align 8
  %6 = alloca i64, align 8
  %7 = alloca i32, align 4
  %8 = alloca i32, align 4
  %9 = alloca i32, align 4
  store i8* %0, i8** %3, align 8
  %10 = load i8*, i8** %3, align 8
  %11 = call i64 @strlen(i8* %10) #4
  %12 = trunc i64 %11 to i32
  store i32 %12, i32* %4, align 4
  %13 = load i32, i32* %4, align 4
  %14 = zext i32 %13 to i64
  %15 = call i8* @llvm.stacksave()
  store i8* %15, i8** %5, align 8
  %16 = alloca i8, i64 %14, align 16
  store i64 %14, i64* %6, align 8
  store i32 0, i32* %7, align 4
  br label %17

17:                                               ; preds = %33, %1
  %18 = load i32, i32* %7, align 4
  %19 = load i32, i32* %4, align 4
  %20 = icmp slt i32 %18, %19
  br i1 %20, label %21, label %36

21:                                               ; preds = %17
  %22 = load i8*, i8** %3, align 8
  %23 = load i32, i32* %7, align 4
  %24 = sext i32 %23 to i64
  %25 = getelementptr inbounds i8, i8* %22, i64 %24
  %26 = load i8, i8* %25, align 1
  %27 = load i32, i32* %4, align 4
  %28 = load i32, i32* %7, align 4
  %29 = sub nsw i32 %27, %28
  %30 = sub nsw i32 %29, 1
  %31 = sext i32 %30 to i64
  %32 = getelementptr inbounds i8, i8* %16, i64 %31
  store i8 %26, i8* %32, align 1
  br label %33

33:                                               ; preds = %21
  %34 = load i32, i32* %7, align 4
  %35 = add nsw i32 %34, 1
  store i32 %35, i32* %7, align 4
  br label %17

36:                                               ; preds = %17
  %37 = load i32, i32* %4, align 4
  %38 = sext i32 %37 to i64
  %39 = getelementptr inbounds i8, i8* %16, i64 %38
  store i8 0, i8* %39, align 1
  %40 = load i8*, i8** %3, align 8
  %41 = call i32 @strcmp(i8* %40, i8* %16) #4
  %42 = icmp eq i32 %41, 0
  br i1 %42, label %43, label %44

43:                                               ; preds = %36
  store i32 1, i32* %2, align 4
  store i32 1, i32* %9, align 4
  br label %45

44:                                               ; preds = %36
  store i32 0, i32* %2, align 4
  store i32 1, i32* %9, align 4
  br label %45

45:                                               ; preds = %44, %43
  %46 = load i8*, i8** %5, align 8
  call void @llvm.stackrestore(i8* %46)
  %47 = load i32, i32* %2, align 4
  ret i32 %47
}

; Function Attrs: nounwind readonly
declare dso_local i64 @strlen(i8*) #1

; Function Attrs: nounwind
declare i8* @llvm.stacksave() #2

; Function Attrs: nounwind readonly
declare dso_local i32 @strcmp(i8*, i8*) #1

; Function Attrs: nounwind
declare void @llvm.stackrestore(i8*) #2

; Function Attrs: noinline nounwind uwtable
define dso_local i32 @main() #0 {
  %1 = alloca i32, align 4
  %2 = alloca i32, align 4
  %3 = alloca i32, align 4
  %4 = alloca i32, align 4
  %5 = alloca i32, align 4
  %6 = alloca i32, align 4
  %7 = alloca i32, align 4
  %8 = alloca i32, align 4
  %9 = alloca i32, align 4
  %10 = alloca i32, align 4
  %11 = alloca [510 x i8], align 16
  %12 = alloca i8*, align 8
  %13 = alloca i64, align 8
  store i32 0, i32* %1, align 4
  %14 = getelementptr inbounds [510 x i8], [510 x i8]* %11, i64 0, i64 0
  %15 = call i32 (i8*, ...) bitcast (i32 (...)* @gets to i32 (i8*, ...)*)(i8* %14)
  %16 = getelementptr inbounds [510 x i8], [510 x i8]* %11, i64 0, i64 0
  %17 = call i64 @strlen(i8* %16) #4
  %18 = trunc i64 %17 to i32
  store i32 %18, i32* %8, align 4
  %19 = load i32, i32* %8, align 4
  %20 = zext i32 %19 to i64
  %21 = call i8* @llvm.stacksave()
  store i8* %21, i8** %12, align 8
  %22 = alloca i8, i64 %20, align 16
  store i64 %20, i64* %13, align 8
  store i32 2, i32* %6, align 4
  br label %23

23:                                               ; preds = %67, %0
  %24 = load i32, i32* %6, align 4
  %25 = load i32, i32* %8, align 4
  %26 = icmp sle i32 %24, %25
  br i1 %26, label %27, label %70

27:                                               ; preds = %23
  store i32 0, i32* %4, align 4
  br label %28

28:                                               ; preds = %63, %27
  %29 = load i32, i32* %4, align 4
  %30 = load i32, i32* %8, align 4
  %31 = load i32, i32* %6, align 4
  %32 = sub nsw i32 %30, %31
  %33 = add nsw i32 %32, 1
  %34 = icmp slt i32 %29, %33
  br i1 %34, label %35, label %66

35:                                               ; preds = %28
  %36 = load i32, i32* %4, align 4
  store i32 %36, i32* %5, align 4
  store i32 0, i32* %9, align 4
  br label %37

37:                                               ; preds = %51, %35
  %38 = load i32, i32* %9, align 4
  %39 = load i32, i32* %6, align 4
  %40 = icmp slt i32 %38, %39
  br i1 %40, label %41, label %54

41:                                               ; preds = %37
  %42 = load i32, i32* %5, align 4
  %43 = sext i32 %42 to i64
  %44 = getelementptr inbounds [510 x i8], [510 x i8]* %11, i64 0, i64 %43
  %45 = load i8, i8* %44, align 1
  %46 = load i32, i32* %9, align 4
  %47 = sext i32 %46 to i64
  %48 = getelementptr inbounds i8, i8* %22, i64 %47
  store i8 %45, i8* %48, align 1
  %49 = load i32, i32* %5, align 4
  %50 = add nsw i32 %49, 1
  store i32 %50, i32* %5, align 4
  br label %51

51:                                               ; preds = %41
  %52 = load i32, i32* %9, align 4
  %53 = add nsw i32 %52, 1
  store i32 %53, i32* %9, align 4
  br label %37

54:                                               ; preds = %37
  %55 = load i32, i32* %9, align 4
  %56 = sext i32 %55 to i64
  %57 = getelementptr inbounds i8, i8* %22, i64 %56
  store i8 0, i8* %57, align 1
  %58 = call i32 @judge(i8* %22)
  %59 = icmp eq i32 %58, 1
  br i1 %59, label %60, label %62

60:                                               ; preds = %54
  %61 = call i32 (i8*, ...) @printf(i8* getelementptr inbounds ([4 x i8], [4 x i8]* @.str, i64 0, i64 0), i8* %22)
  br label %62

62:                                               ; preds = %60, %54
  br label %63

63:                                               ; preds = %62
  %64 = load i32, i32* %4, align 4
  %65 = add nsw i32 %64, 1
  store i32 %65, i32* %4, align 4
  br label %28

66:                                               ; preds = %28
  br label %67

67:                                               ; preds = %66
  %68 = load i32, i32* %6, align 4
  %69 = add nsw i32 %68, 1
  store i32 %69, i32* %6, align 4
  br label %23

70:                                               ; preds = %23
  %71 = load i8*, i8** %12, align 8
  call void @llvm.stackrestore(i8* %71)
  %72 = load i32, i32* %1, align 4
  ret i32 %72
}

declare dso_local i32 @gets(...) #3

declare dso_local i32 @printf(i8*, ...) #3


!llvm.module.flags = !{!0}
!llvm.ident = !{!1}

!0 = !{i32 1, !"wchar_size", i32 4}
!1 = !{!"clang version 10.0.0-4ubuntu1 "}
